target datalayout = "e-m:e-p270:32:32-p271:32:32-p272:64:64-i64:64-i128:128-f80:128-n8:16:32:64-S128"
target triple = "x86_64-pc-linux-gnu"

%"class.datalog::udoc_relation" = type { %"class.datalog::relation_base.base", ptr, %class.union_bvec, %class.svector }
%"class.datalog::relation_base.base" = type { %"class.datalog::tr_infrastructure<datalog::relation_traits>::base_ancestor.base" }
%"class.datalog::tr_infrastructure<datalog::relation_traits>::base_ancestor.base" = type <{ ptr, ptr, %"class.datalog::relation_signature", i32 }>
%"class.datalog::relation_signature" = type { %"class.datalog::tr_infrastructure<datalog::relation_traits>::signature_base" }
%"class.datalog::tr_infrastructure<datalog::relation_traits>::signature_base" = type { %class.ptr_vector }
%class.ptr_vector = type { %class.vector }
%class.vector = type { ptr }
%class.union_bvec = type { %class.buffer }
%class.buffer = type { ptr, i32, i32, [64 x i8] }
%class.svector = type { %class.vector.0 }
%class.vector.0 = type { ptr }

; Function Attrs: mustprogress nounwind uwtable
define linkonce_odr hidden noundef i32 @_ZNK6bufferIP3docLb0ELj8EE4sizeEv(ptr noundef nonnull align 8 dereferenceable(80) %0) #6 comdat align 2 {
  %2 = alloca ptr, align 8
  store ptr %0, ptr %2, align 8, !tbaa !568
  %3 = load ptr, ptr %2, align 8
  %4 = getelementptr inbounds nuw %class.buffer, ptr %3, i32 0, i32 1
  %5 = load i32, ptr %4, align 8, !tbaa !571
  ret i32 %5
}

; Function Attrs: mustprogress nounwind uwtable
define linkonce_odr hidden noundef nonnull align 8 dereferenceable(8) ptr @_ZNK6bufferIP3docLb0ELj8EEixEj(ptr noundef nonnull align 8 dereferenceable(80) %0, i32 noundef %1) #6 comdat align 2 {
  %3 = alloca ptr, align 8
  %4 = alloca i32, align 4
  store ptr %0, ptr %3, align 8, !tbaa !568
  store i32 %1, ptr %4, align 4, !tbaa !16
  %5 = load ptr, ptr %3, align 8
  %6 = getelementptr inbounds nuw %class.buffer, ptr %5, i32 0, i32 0
  %7 = load ptr, ptr %6, align 8, !tbaa !570
  %8 = load i32, ptr %4, align 4, !tbaa !16
  %9 = zext i32 %8 to i64
  %10 = getelementptr inbounds nuw ptr, ptr %7, i64 %9
  ret ptr %10
}

; Function Attrs: mustprogress nounwind uwtable
define linkonce_odr hidden noundef i32 @_ZNK10union_bvecI11doc_manager3docE4sizeEv(ptr noundef nonnull align 8 dereferenceable(80) %0) #6 comdat align 2 {
  %2 = alloca ptr, align 8
  store ptr %0, ptr %2, align 8, !tbaa !27
  %3 = load ptr, ptr %2, align 8
  %4 = getelementptr inbounds nuw %class.union_bvec, ptr %3, i32 0, i32 0
  %5 = call noundef i32 @_ZNK6bufferIP3docLb0ELj8EE4sizeEv(ptr noundef nonnull align 8 dereferenceable(80) %4)
  ret i32 %5
}

; Function Attrs: mustprogress uwtable
define linkonce_odr hidden noundef i32 @_ZNK10union_bvecI11doc_manager3docE23get_size_estimate_bytesERKS0_(ptr noundef nonnull align 8 dereferenceable(80) %0, ptr noundef nonnull align 8 dereferenceable(1080) %1) #4 comdat align 2 {
  %3 = alloca ptr, align 8
  %4 = alloca ptr, align 8
  %5 = alloca i32, align 4
  %6 = alloca i32, align 4
  store ptr %0, ptr %3, align 8, !tbaa !27
  store ptr %1, ptr %4, align 8, !tbaa !14
  %7 = load ptr, ptr %3, align 8
  call void @llvm.lifetime.start.p0(i64 4, ptr %5) #3
  %8 = call noundef i32 @_ZNK10union_bvecI11doc_manager3docE4sizeEv(ptr noundef nonnull align 8 dereferenceable(80) %7)
  %9 = zext i32 %8 to i64
  %10 = mul i64 8, %9
  %11 = trunc i64 %10 to i32
  store i32 %11, ptr %5, align 4, !tbaa !16
  call void @llvm.lifetime.start.p0(i64 4, ptr %6) #3
  store i32 0, ptr %6, align 4, !tbaa !16
  br label %12

12:                                               ; preds = %26, %2
  %13 = load i32, ptr %6, align 4, !tbaa !16
  %14 = call noundef i32 @_ZNK10union_bvecI11doc_manager3docE4sizeEv(ptr noundef nonnull align 8 dereferenceable(80) %7)
  %15 = icmp ult i32 %13, %14
  br i1 %15, label %17, label %16

16:                                               ; preds = %12
  call void @llvm.lifetime.end.p0(i64 4, ptr %6) #3
  br label %29

17:                                               ; preds = %12
  %18 = load ptr, ptr %4, align 8, !tbaa !14
  %19 = getelementptr inbounds nuw %class.union_bvec, ptr %7, i32 0, i32 0
  %20 = load i32, ptr %6, align 4, !tbaa !16
  %21 = call noundef nonnull align 8 dereferenceable(8) ptr @_ZNK6bufferIP3docLb0ELj8EEixEj(ptr noundef nonnull align 8 dereferenceable(80) %19, i32 noundef %20)
  %22 = load ptr, ptr %21, align 8, !tbaa !82
  %23 = call noundef i32 @_ZNK11doc_manager23get_size_estimate_bytesERK3doc(ptr noundef nonnull align 8 dereferenceable(1080) %18, ptr noundef nonnull align 8 dereferenceable(88) %22)
  %24 = load i32, ptr %5, align 4, !tbaa !16
  %25 = add i32 %24, %23
  store i32 %25, ptr %5, align 4, !tbaa !16
  br label %26

26:                                               ; preds = %17
  %27 = load i32, ptr %6, align 4, !tbaa !16
  %28 = add i32 %27, 1
  store i32 %28, ptr %6, align 4, !tbaa !16
  br label %12, !llvm.loop !153

29:                                               ; preds = %16
  %30 = load i32, ptr %5, align 4, !tbaa !16
  call void @llvm.lifetime.end.p0(i64 4, ptr %5) #3
  ret i32 %30
}

; Function Attrs: mustprogress uwtable
define hidden noundef i32 @_ZNK7datalog13udoc_relation23get_size_estimate_bytesEv(ptr noundef nonnull align 8 dereferenceable(128) %0) unnamed_addr #4 align 2 {
  %2 = alloca ptr, align 8
  store ptr %0, ptr %2, align 8, !tbaa !3
  %3 = load ptr, ptr %2, align 8
  %4 = getelementptr inbounds nuw %"class.datalog::udoc_relation", ptr %3, i32 0, i32 2
  %5 = getelementptr inbounds nuw %"class.datalog::udoc_relation", ptr %3, i32 0, i32 1
  %6 = load ptr, ptr %5, align 8, !tbaa !71
  %7 = call noundef i32 @_ZNK10union_bvecI11doc_manager3docE23get_size_estimate_bytesERKS0_(ptr noundef nonnull align 8 dereferenceable(80) %4, ptr noundef nonnull align 8 dereferenceable(1080) %6)
  %8 = zext i32 %7 to i64
  %9 = add i64 128, %8
  %10 = trunc i64 %9 to i32
  ret i32 %10
}