; Function Attrs: mustprogress uwtable
define hidden noundef i32 @_ZNK7datalog13udoc_relation23get_size_estimate_bytesEv(ptr noundef nonnull readonly align 8 captures(none) dereferenceable(128) %0) unnamed_addr #3 align 2 {
  %2 = getelementptr inbounds nuw i8, ptr %0, i64 40
  %3 = getelementptr inbounds nuw i8, ptr %0, i64 32
  %4 = load ptr, ptr %3, align 8, !tbaa !144
  %5 = getelementptr inbounds nuw i8, ptr %0, i64 48
  %6 = load i32, ptr %5, align 8, !tbaa !35
  %.not.i = icmp eq i32 %6, 0
  br i1 %.not.i, label %_ZNK10union_bvecI11doc_manager3docE23get_size_estimate_bytesERKS0_.exit, label %.lr.ph.i.preheader

.lr.ph.i.preheader:                               ; preds = %1
  %7 = shl i32 %6, 3
  br label %.lr.ph.i

.lr.ph.i:                                         ; preds = %.lr.ph.i.preheader, %.lr.ph.i
  %indvars.iv.i = phi i64 [ %indvars.iv.next.i, %.lr.ph.i ], [ 0, %.lr.ph.i.preheader ]
  %.067.i = phi i32 [ %12, %.lr.ph.i ], [ %7, %.lr.ph.i.preheader ]
  %8 = load ptr, ptr %2, align 8, !tbaa !32
  %9 = getelementptr inbounds nuw ptr, ptr %8, i64 %indvars.iv.i
  %10 = load ptr, ptr %9, align 8, !tbaa !148
  %11 = tail call noundef i32 @_ZNK11doc_manager23get_size_estimate_bytesERK3doc(ptr noundef nonnull align 8 dereferenceable(1080) %4, ptr noundef nonnull align 8 dereferenceable(88) %10)
  %12 = add i32 %11, %.067.i
  %indvars.iv.next.i = add nuw nsw i64 %indvars.iv.i, 1
  %13 = load i32, ptr %5, align 8, !tbaa !35
  %14 = zext i32 %13 to i64
  %15 = icmp samesign ult i64 %indvars.iv.next.i, %14
  br i1 %15, label %.lr.ph.i, label %_ZNK10union_bvecI11doc_manager3docE23get_size_estimate_bytesERKS0_.exit.loopexit, !llvm.loop !224

_ZNK10union_bvecI11doc_manager3docE23get_size_estimate_bytesERKS0_.exit.loopexit: ; preds = %.lr.ph.i
  %16 = add i32 %12, 128
  br label %_ZNK10union_bvecI11doc_manager3docE23get_size_estimate_bytesERKS0_.exit

_ZNK10union_bvecI11doc_manager3docE23get_size_estimate_bytesERKS0_.exit: ; preds = %_ZNK10union_bvecI11doc_manager3docE23get_size_estimate_bytesERKS0_.exit.loopexit, %1
  %.06.lcssa.i = phi i32 [ 128, %1 ], [ %16, %_ZNK10union_bvecI11doc_manager3docE23get_size_estimate_bytesERKS0_.exit.loopexit ]
  ret i32 %.06.lcssa.i
}